; Function Attrs: mustprogress nofree norecurse nosync nounwind willreturn memory(argmem: read) uwtable
define internal range(i32 -1, 2) i32 @namecmpf(ptr noundef readonly captures(none) %0, ptr noundef readonly captures(none) %1) #8 {
  %3 = getelementptr inbounds nuw i8, ptr %0, i64 40
  %4 = load ptr, ptr %3, align 8, !tbaa !21
  %5 = getelementptr inbounds nuw i8, ptr %1, i64 40
  %6 = load ptr, ptr %5, align 8, !tbaa !21
  %7 = icmp ugt ptr %4, %6
  %8 = icmp ult ptr %4, %6
  %. = sext i1 %8 to i32
  %.0 = select i1 %7, i32 1, i32 %.
  ret i32 %.0
}